((cscenesim.objects.gso
GSO
p1
cscenesim.objects.pso
RBSO
p2
g1
g2
g1
g2
g1
g2
g1
g2
g1
g2
g1
g2
g1
g2
g1
g2
g1
g2
cscenesim.objects.sso
SSO
p3
t((dp4
S'scale'
p5
clibpanda
LVecBase3f
p6
(F1
F1
F1
tRp7
sS'name'
p8
S'block0-graphics'
p9
sS'color'
p10
clibpanda
LVecBase4f
p11
(F0
F1
F0.15400001406669617
F1
tRp12
sS'quat'
p13
clibpanda
LQuaternionf
p14
(F1
F0
F0
F0
tRp15
sS'pos'
p16
clibpanda
LPoint3f
p17
(F0
F0
F0
tRp18
sS'model'
p19
S'block.egg'
p20
s(dp21
g5
g6
(F0.20000000298023224
F0.60000002384185791
F0.20000000298023224
tRp22
sg8
S'block0-physics'
p23
sg13
g14
(F0.70710676908493042
F0
F0
F0.7071068286895752
tRp24
sS'linear_velocity'
p25
clibpanda
LVector3f
p26
(F0
F0
F0
tRp27
sS'gravity'
p28
g26
(F0
F0
F0
tRp29
sS'friction'
p30
F0.89442718029022217
sg16
g17
(F0.26666668057441711
F-0.05000000074505806
F0.10000000149011612
tRp31
sS'shape'
p32
S'Box'
p33
sS'deactivation_enabled'
p34
I01
sS'mass'
p35
F4.0800004005432129
sS'angular_velocity'
p36
g26
(F0
F0
F0
tRp37
sS'restitution'
p38
F0
s(dp39
g5
g6
(F1
F1
F1
tRp40
sg8
S'block1-graphics'
p41
sg10
g11
(F0.54200005531311035
F1
F0
F1
tRp42
sg13
g14
(F1
F0
F0
F0
tRp43
sg16
g17
(F0
F0
F0
tRp44
sg19
g20
s(dp45
g5
g6
(F0.20000000298023224
F0.60000002384185791
F0.19999997317790985
tRp46
sg8
S'block1-physics'
p47
sg13
g14
(F0.70710676908493042
F0
F0
F0.7071068286895752
tRp48
sg25
g26
(F0
F0
F0
tRp49
sg28
g26
(F0
F0
F0
tRp50
sg30
F0.89442718029022217
sg16
g17
(F0.083333328366279602
F0.21666666865348816
F0.10000000149011612
tRp51
sg32
S'Box'
p52
sg34
I01
sg35
F4.0799994468688965
sg36
g26
(F0
F0
F0
tRp53
sg38
F0
s(dp54
g5
g6
(F1
F1
F1
tRp55
sg8
S'block2-graphics'
p56
sg10
g11
(F0
F1
F0.059000004082918167
F1
tRp57
sg13
g14
(F1
F0
F0
F0
tRp58
sg16
g17
(F0
F0
F0
tRp59
sg19
g20
s(dp60
g5
g6
(F0.20000000298023224
F0.60000002384185791
F0.20000000298023224
tRp61
sg8
S'block2-physics'
p62
sg13
g14
(F1
F0
F0
F0
tRp63
sg25
g26
(F0
F0
F0
tRp64
sg28
g26
(F0
F0
F0
tRp65
sg30
F0.89442718029022217
sg16
g17
(F-0.30000001192092896
F-0.18333333730697632
F0.10000000149011612
tRp66
sg32
S'Box'
p67
sg34
I01
sg35
F4.0800004005432129
sg36
g26
(F0
F0
F0
tRp68
sg38
F0
s(dp69
g5
g6
(F1
F1
F1
tRp70
sg8
S'block3-graphics'
p71
sg10
g11
(F0
F1
F0.24000000953674316
F1
tRp72
sg13
g14
(F1
F0
F0
F0
tRp73
sg16
g17
(F0
F0
F0
tRp74
sg19
g20
s(dp75
g5
g6
(F0.20000000298023224
F0.60000002384185791
F0.19999997317790985
tRp76
sg8
S'block3-physics'
p77
sg13
g14
(F1
F0
F0
F0
tRp78
sg25
g26
(F0
F0
F0
tRp79
sg28
g26
(F0
F0
F0
tRp80
sg30
F0.89442718029022217
sg16
g17
(F0.18333333730697632
F0.066666670143604279
F0.30000001192092896
tRp81
sg32
S'Box'
p82
sg34
I01
sg35
F4.0799994468688965
sg36
g26
(F0
F0
F0
tRp83
sg38
F0
s(dp84
g5
g6
(F1
F1
F1
tRp85
sg8
S'block4-graphics'
p86
sg10
g11
(F1
F0.90900003910064697
F0
F1
tRp87
sg13
g14
(F1
F0
F0
F0
tRp88
sg16
g17
(F0
F0
F0
tRp89
sg19
g20
s(dp90
g5
g6
(F0.19999997317790985
F0.60000002384185791
F0.20000000298023224
tRp91
sg8
S'block4-physics'
p92
sg13
g14
(F1
F0
F0
F0
tRp93
sg25
g26
(F0
F0
F0
tRp94
sg28
g26
(F0
F0
F0
tRp95
sg30
F0.89442718029022217
sg16
g17
(F-0.30000001192092896
F0.25
F0.30000001192092896
tRp96
sg32
S'Box'
p97
sg34
I01
sg35
F4.0799994468688965
sg36
g26
(F0
F0
F0
tRp98
sg38
F0
s(dp99
g5
g6
(F1
F1
F1
tRp100
sg8
S'block5-graphics'
p101
sg10
g11
(F1
F0
F0.71000003814697266
F1
tRp102
sg13
g14
(F1
F0
F0
F0
tRp103
sg16
g17
(F0
F0
F0
tRp104
sg19
g20
s(dp105
g5
g6
(F0.19999997317790985
F0.60000002384185791
F0.20000000298023224
tRp106
sg8
S'block5-physics'
p107
sg13
g14
(F0.70710676908493042
F0.7071068286895752
F0
F0
tRp108
sg25
g26
(F0
F0
F0
tRp109
sg28
g26
(F0
F0
F0
tRp110
sg30
F0.89442718029022217
sg16
g17
(F-0.10000000149011612
F0.28333333134651184
F0.5
tRp111
sg32
S'Box'
p112
sg34
I01
sg35
F4.0799994468688965
sg36
g26
(F0
F0
F0
tRp113
sg38
F0
s(dp114
g5
g6
(F1
F1
F1
tRp115
sg8
S'block6-graphics'
p116
sg10
g11
(F0.86000001430511475
F0
F1
F1
tRp117
sg13
g14
(F1
F0
F0
F0
tRp118
sg16
g17
(F0
F0
F0
tRp119
sg19
g20
s(dp120
g5
g6
(F0.20000000298023224
F0.60000002384185791
F0.19999997317790985
tRp121
sg8
S'block6-physics'
p122
sg13
g14
(F0.70710676908493042
F0
F0
F0.7071068286895752
tRp123
sg25
g26
(F0
F0
F0
tRp124
sg28
g26
(F0
F0
F0
tRp125
sg30
F0.89442718029022217
sg16
g17
(F-0.15000000596046448
F-0.10000000149011612
F0.5
tRp126
sg32
S'Box'
p127
sg34
I01
sg35
F4.0799994468688965
sg36
g26
(F0
F0
F0
tRp128
sg38
F0
s(dp129
g5
g6
(F1
F1
F1
tRp130
sg8
S'block7-graphics'
p131
sg10
g11
(F0.41600000858306885
F0
F1
F1
tRp132
sg13
g14
(F1
F0
F0
F0
tRp133
sg16
g17
(F0
F0
F0
tRp134
sg19
g20
s(dp135
g5
g6
(F0.19999997317790985
F0.60000002384185791
F0.20000000298023224
tRp136
sg8
S'block7-physics'
p137
sg13
g14
(F0.70710676908493042
F0.7071068286895752
F0
F0
tRp138
sg25
g26
(F0
F0
F0
tRp139
sg28
g26
(F0
F0
F0
tRp140
sg30
F0.89442718029022217
sg16
g17
(F0.18333333730697632
F0.20000000298023224
F0.69999998807907104
tRp141
sg32
S'Box'
p142
sg34
I01
sg35
F4.0799994468688965
sg36
g26
(F0
F0
F0
tRp143
sg38
F0
s(dp144
g5
g6
(F1
F1
F1
tRp145
sg8
S'block8-graphics'
p146
sg10
g11
(F1
F0
F0.82200002670288086
F1
tRp147
sg13
g14
(F1
F0
F0
F0
tRp148
sg16
g17
(F0
F0
F0
tRp149
sg19
g20
s(dp150
g5
g6
(F0.20000000298023224
F0.60000002384185791
F0.19999997317790985
tRp151
sg8
S'block8-physics'
p152
sg13
g14
(F1
F0
F0
F0
tRp153
sg25
g26
(F0
F0
F0
tRp154
sg28
g26
(F0
F0
F0
tRp155
sg30
F0.89442718029022217
sg16
g17
(F0.15000000596046448
F0.23333331942558289
F1.1000000238418579
tRp156
sg32
S'Box'
p157
sg34
I01
sg35
F4.0799994468688965
sg36
g26
(F0
F0
F0
tRp158
sg38
F0
s(dp159
g5
g6
(F1
F1
F1
tRp160
sg8
S'block9-graphics'
p161
sg10
g11
(F0
F1
F0.75800001621246338
F1
tRp162
sg13
g14
(F1
F0
F0
F0
tRp163
sg16
g17
(F0
F0
F0
tRp164
sg19
g20
s(dp165
g5
g6
(F0.20000000298023224
F0.60000002384185791
F0.19999997317790985
tRp166
sg8
S'block9-physics'
p167
sg13
g14
(F0.70710676908493042
F0.7071068286895752
F0
F0
tRp168
sg25
g26
(F0
F0
F0
tRp169
sg28
g26
(F0
F0
F0
tRp170
sg30
F0.89442718029022217
sg16
g17
(F0.20000000298023224
F-0.066666670143604279
F1.5
tRp171
sg32
S'Box'
p172
sg34
I01
sg35
F4.0799994468688965
sg36
g26
(F0
F0
F0
tRp173
sg38
F0
s(dp174
g13
g14
(F1
F0
F0
F0
tRp175
sg5
g6
(F1
F1
F1
tRp176
sg16
g17
(F0
F0
F0
tRp177
sg8
S'tower_01596_0000000000'
p178
st(I2
I21
I4
I21
I6
I21
I8
I21
I10
I21
I12
I21
I14
I21
I16
I21
I18
I21
I20
I21
I0
ttp179
.